target datalayout = "e-m:e-p270:32:32-p271:32:32-p272:64:64-i64:64-i128:128-f80:128-n8:16:32:64-S128"
target triple = "x86_64-pc-linux-gnu"

%struct.ossl_quic_ack_range_st = type { i64, i64 }
%struct.OSSL_TIME = type { i64 }
%struct.ossl_quic_frame_ack_st = type { ptr, i64, %struct.OSSL_TIME, i64, i64, i64, i8 }

@.str.5 = private unnamed_addr constant [33 x i8] c"../openssl/test/quic_wire_test.c\00", align 1
@.str.8 = private unnamed_addr constant [2 x i8] c"1\00", align 1
@.str.23 = private unnamed_addr constant [9 x i8] c"fail < 0\00", align 1
@encode_case_3_f = internal constant { ptr, i64, %struct.OSSL_TIME, i64, i64, i64, i8, [7 x i8] } { ptr @encode_case_3_ranges, i64 2, %struct.OSSL_TIME { i64 1000000 }, i64 60, i64 70, i64 80, i8 1, [7 x i8] zeroinitializer }, align 8
@.str.26 = private unnamed_addr constant [4 x i8] c"ret\00", align 1
@.str.27 = private unnamed_addr constant [59 x i8] c"ossl_quic_wire_decode_frame_ack(pkt, 3, &f, &total_ranges)\00", align 1
@.str.28 = private unnamed_addr constant [18 x i8] c"peek_total_ranges\00", align 1
@.str.29 = private unnamed_addr constant [2 x i8] c"2\00", align 1
@.str.30 = private unnamed_addr constant [13 x i8] c"total_ranges\00", align 1
@.str.31 = private unnamed_addr constant [47 x i8] c"f.num_ack_ranges * sizeof(OSSL_QUIC_ACK_RANGE)\00", align 1
@.str.32 = private unnamed_addr constant [9 x i8] c"SIZE_MAX\00", align 1
@.str.33 = private unnamed_addr constant [61 x i8] c"encode_case_3_f.num_ack_ranges * sizeof(OSSL_QUIC_ACK_RANGE)\00", align 1
@.str.34 = private unnamed_addr constant [13 x i8] c"f.ack_ranges\00", align 1
@.str.35 = private unnamed_addr constant [27 x i8] c"encode_case_3_f.ack_ranges\00", align 1
@.str.36 = private unnamed_addr constant [30 x i8] c"ossl_time2ticks(f.delay_time)\00", align 1
@.str.37 = private unnamed_addr constant [44 x i8] c"ossl_time2ticks(encode_case_3_f.delay_time)\00", align 1
@.str.38 = private unnamed_addr constant [14 x i8] c"f.ecn_present\00", align 1
@.str.39 = private unnamed_addr constant [7 x i8] c"f.ect0\00", align 1
@.str.40 = private unnamed_addr constant [21 x i8] c"encode_case_3_f.ect0\00", align 1
@.str.41 = private unnamed_addr constant [7 x i8] c"f.ect1\00", align 1
@.str.42 = private unnamed_addr constant [21 x i8] c"encode_case_3_f.ect1\00", align 1
@.str.43 = private unnamed_addr constant [8 x i8] c"f.ecnce\00", align 1
@.str.44 = private unnamed_addr constant [22 x i8] c"encode_case_3_f.ecnce\00", align 1

; Function Attrs: inlinehint nounwind uwtable
define internal i64 @ossl_time2ticks(i64 %0) #3 {
  %2 = alloca %struct.OSSL_TIME, align 8
  %3 = getelementptr inbounds nuw %struct.OSSL_TIME, ptr %2, i32 0, i32 0
  store i64 %0, ptr %3, align 8
  %4 = getelementptr inbounds nuw %struct.OSSL_TIME, ptr %2, i32 0, i32 0
  %5 = load i64, ptr %4, align 8, !tbaa !75
  ret i64 %5
}

; Function Attrs: nounwind uwtable
define internal i32 @encode_case_3_dec(ptr noundef %0, i64 noundef %1) #0 {
  %3 = alloca i32, align 4
  %4 = alloca ptr, align 8
  %5 = alloca i64, align 8
  %6 = alloca [4 x %struct.ossl_quic_ack_range_st], align 16
  %7 = alloca %struct.ossl_quic_frame_ack_st, align 8
  %8 = alloca i64, align 8
  %9 = alloca i64, align 8
  %10 = alloca i32, align 4
  %11 = alloca i32, align 4
  store ptr %0, ptr %4, align 8, !tbaa !40
  store i64 %1, ptr %5, align 8, !tbaa !19
  call void @llvm.lifetime.start.p0(i64 64, ptr %6) #5
  call void @llvm.memset.p0.i64(ptr align 16 %6, i8 0, i64 64, i1 false)
  call void @llvm.lifetime.start.p0(i64 56, ptr %7) #5
  call void @llvm.memset.p0.i64(ptr align 8 %7, i8 0, i64 56, i1 false)
  call void @llvm.lifetime.start.p0(i64 8, ptr %8) #5
  store i64 0, ptr %8, align 8, !tbaa !19
  call void @llvm.lifetime.start.p0(i64 8, ptr %9) #5
  store i64 0, ptr %9, align 8, !tbaa !19
  call void @llvm.lifetime.start.p0(i64 4, ptr %10) #5
  %12 = getelementptr inbounds [4 x %struct.ossl_quic_ack_range_st], ptr %6, i64 0, i64 0
  %13 = getelementptr inbounds nuw %struct.ossl_quic_frame_ack_st, ptr %7, i32 0, i32 0
  store ptr %12, ptr %13, align 8, !tbaa !46
  %14 = getelementptr inbounds nuw %struct.ossl_quic_frame_ack_st, ptr %7, i32 0, i32 1
  store i64 4, ptr %14, align 8, !tbaa !50
  %15 = load ptr, ptr %4, align 8, !tbaa !40
  %16 = call i32 @ossl_quic_wire_peek_frame_ack_num_ranges(ptr noundef %15, ptr noundef %9)
  store i32 %16, ptr %10, align 4, !tbaa !4
  %17 = load i64, ptr %5, align 8, !tbaa !19
  %18 = icmp slt i64 %17, 0
  br i1 %18, label %19, label %24

19:                                               ; preds = %2
  %20 = load i32, ptr %10, align 4, !tbaa !4
  %21 = call i32 @test_int_eq(ptr noundef @.str.5, i32 noundef 107, ptr noundef @.str.26, ptr noundef @.str.8, i32 noundef %20, i32 noundef 1)
  %22 = icmp ne i32 %21, 0
  br i1 %22, label %24, label %23

23:                                               ; preds = %19
  store i32 0, ptr %3, align 4
  store i32 1, ptr %11, align 4
  br label %110

24:                                               ; preds = %19, %2
  %25 = load ptr, ptr %4, align 8, !tbaa !40
  %26 = call i32 @ossl_quic_wire_decode_frame_ack(ptr noundef %25, i32 noundef 3, ptr noundef %7, ptr noundef %8)
  %27 = load i64, ptr %5, align 8, !tbaa !19
  %28 = icmp slt i64 %27, 0
  %29 = zext i1 %28 to i32
  %30 = call i32 @test_int_eq(ptr noundef @.str.5, i32 noundef 110, ptr noundef @.str.27, ptr noundef @.str.23, i32 noundef %26, i32 noundef %29)
  %31 = icmp ne i32 %30, 0
  br i1 %31, label %33, label %32

32:                                               ; preds = %24
  store i32 0, ptr %3, align 4
  store i32 1, ptr %11, align 4
  br label %110

33:                                               ; preds = %24
  %34 = load i32, ptr %10, align 4, !tbaa !4
  %35 = icmp eq i32 %34, 1
  br i1 %35, label %36, label %41

36:                                               ; preds = %33
  %37 = load i64, ptr %9, align 8, !tbaa !19
  %38 = call i32 @test_uint64_t_eq(ptr noundef @.str.5, i32 noundef 113, ptr noundef @.str.28, ptr noundef @.str.29, i64 noundef %37, i64 noundef 2)
  %39 = icmp ne i32 %38, 0
  br i1 %39, label %41, label %40

40:                                               ; preds = %36
  store i32 0, ptr %3, align 4
  store i32 1, ptr %11, align 4
  br label %110

41:                                               ; preds = %36, %33
  %42 = load i64, ptr %5, align 8, !tbaa !19
  %43 = icmp sge i64 %42, 0
  br i1 %43, label %44, label %45

44:                                               ; preds = %41
  store i32 1, ptr %3, align 4
  store i32 1, ptr %11, align 4
  br label %110

45:                                               ; preds = %41
  %46 = load i64, ptr %8, align 8, !tbaa !19
  %47 = load i64, ptr %9, align 8, !tbaa !19
  %48 = call i32 @test_uint64_t_eq(ptr noundef @.str.5, i32 noundef 119, ptr noundef @.str.30, ptr noundef @.str.28, i64 noundef %46, i64 noundef %47)
  %49 = icmp ne i32 %48, 0
  br i1 %49, label %51, label %50

50:                                               ; preds = %45
  store i32 0, ptr %3, align 4
  store i32 1, ptr %11, align 4
  br label %110

51:                                               ; preds = %45
  %52 = getelementptr inbounds nuw %struct.ossl_quic_frame_ack_st, ptr %7, i32 0, i32 1
  %53 = load i64, ptr %52, align 8, !tbaa !50
  %54 = mul i64 %53, 16
  %55 = call i32 @test_uint64_t_le(ptr noundef @.str.5, i32 noundef 123, ptr noundef @.str.31, ptr noundef @.str.32, i64 noundef %54, i64 noundef -1)
  %56 = icmp ne i32 %55, 0
  br i1 %56, label %57, label %60

57:                                               ; preds = %51
  %58 = call i32 @test_uint64_t_le(ptr noundef @.str.5, i32 noundef 126, ptr noundef @.str.33, ptr noundef @.str.32, i64 noundef 32, i64 noundef -1)
  %59 = icmp ne i32 %58, 0
  br i1 %59, label %61, label %60

60:                                               ; preds = %57, %51
  store i32 0, ptr %3, align 4
  store i32 1, ptr %11, align 4
  br label %110

61:                                               ; preds = %57
  %62 = getelementptr inbounds nuw %struct.ossl_quic_frame_ack_st, ptr %7, i32 0, i32 0
  %63 = load ptr, ptr %62, align 8, !tbaa !46
  %64 = getelementptr inbounds nuw %struct.ossl_quic_frame_ack_st, ptr %7, i32 0, i32 1
  %65 = load i64, ptr %64, align 8, !tbaa !50
  %66 = mul i64 %65, 16
  %67 = load ptr, ptr @encode_case_3_f, align 8, !tbaa !46
  %68 = call i32 @test_mem_eq(ptr noundef @.str.5, i32 noundef 132, ptr noundef @.str.34, ptr noundef @.str.35, ptr noundef %63, i64 noundef %66, ptr noundef %67, i64 noundef 32)
  %69 = icmp ne i32 %68, 0
  br i1 %69, label %71, label %70

70:                                               ; preds = %61
  store i32 0, ptr %3, align 4
  store i32 1, ptr %11, align 4
  br label %110

71:                                               ; preds = %61
  %72 = getelementptr inbounds nuw %struct.ossl_quic_frame_ack_st, ptr %7, i32 0, i32 2
  %73 = getelementptr inbounds nuw %struct.OSSL_TIME, ptr %72, i32 0, i32 0
  %74 = load i64, ptr %73, align 8
  %75 = call i64 @ossl_time2ticks(i64 %74)
  %76 = load i64, ptr getelementptr inbounds nuw (%struct.ossl_quic_frame_ack_st, ptr @encode_case_3_f, i32 0, i32 2), align 8
  %77 = call i64 @ossl_time2ticks(i64 %76)
  %78 = call i32 @test_uint64_t_eq(ptr noundef @.str.5, i32 noundef 136, ptr noundef @.str.36, ptr noundef @.str.37, i64 noundef %75, i64 noundef %77)
  %79 = icmp ne i32 %78, 0
  br i1 %79, label %81, label %80

80:                                               ; preds = %71
  store i32 0, ptr %3, align 4
  store i32 1, ptr %11, align 4
  br label %110

81:                                               ; preds = %71
  %82 = getelementptr inbounds nuw %struct.ossl_quic_frame_ack_st, ptr %7, i32 0, i32 6
  %83 = load i8, ptr %82, align 8
  %84 = and i8 %83, 1
  %85 = zext i8 %84 to i32
  %86 = icmp ne i32 %85, 0
  %87 = zext i1 %86 to i32
  %88 = call i32 @test_true(ptr noundef @.str.5, i32 noundef 139, ptr noundef @.str.38, i32 noundef %87)
  %89 = icmp ne i32 %88, 0
  br i1 %89, label %91, label %90

90:                                               ; preds = %81
  store i32 0, ptr %3, align 4
  store i32 1, ptr %11, align 4
  br label %110

91:                                               ; preds = %81
  %92 = getelementptr inbounds nuw %struct.ossl_quic_frame_ack_st, ptr %7, i32 0, i32 3
  %93 = load i64, ptr %92, align 8, !tbaa !51
  %94 = call i32 @test_uint64_t_eq(ptr noundef @.str.5, i32 noundef 142, ptr noundef @.str.39, ptr noundef @.str.40, i64 noundef %93, i64 noundef 60)
  %95 = icmp ne i32 %94, 0
  br i1 %95, label %97, label %96

96:                                               ; preds = %91
  store i32 0, ptr %3, align 4
  store i32 1, ptr %11, align 4
  br label %110

97:                                               ; preds = %91
  %98 = getelementptr inbounds nuw %struct.ossl_quic_frame_ack_st, ptr %7, i32 0, i32 4
  %99 = load i64, ptr %98, align 8, !tbaa !52
  %100 = call i32 @test_uint64_t_eq(ptr noundef @.str.5, i32 noundef 145, ptr noundef @.str.41, ptr noundef @.str.42, i64 noundef %99, i64 noundef 70)
  %101 = icmp ne i32 %100, 0
  br i1 %101, label %103, label %102

102:                                              ; preds = %97
  store i32 0, ptr %3, align 4
  store i32 1, ptr %11, align 4
  br label %110

103:                                              ; preds = %97
  %104 = getelementptr inbounds nuw %struct.ossl_quic_frame_ack_st, ptr %7, i32 0, i32 5
  %105 = load i64, ptr %104, align 8, !tbaa !53
  %106 = call i32 @test_uint64_t_eq(ptr noundef @.str.5, i32 noundef 148, ptr noundef @.str.43, ptr noundef @.str.44, i64 noundef %105, i64 noundef 80)
  %107 = icmp ne i32 %106, 0
  br i1 %107, label %109, label %108

108:                                              ; preds = %103
  store i32 0, ptr %3, align 4
  store i32 1, ptr %11, align 4
  br label %110

109:                                              ; preds = %103
  store i32 1, ptr %3, align 4
  store i32 1, ptr %11, align 4
  br label %110

110:                                              ; preds = %109, %108, %102, %96, %90, %80, %70, %60, %50, %44, %40, %32, %23
  call void @llvm.lifetime.end.p0(i64 4, ptr %10) #5
  call void @llvm.lifetime.end.p0(i64 8, ptr %9) #5
  call void @llvm.lifetime.end.p0(i64 8, ptr %8) #5
  call void @llvm.lifetime.end.p0(i64 56, ptr %7) #5
  call void @llvm.lifetime.end.p0(i64 64, ptr %6) #5
  %111 = load i32, ptr %3, align 4
  ret i32 %111
}