; Function Attrs: nounwind uwtable
define internal range(i32 0, 2) i32 @encode_case_3_dec(ptr noundef %0, i64 noundef %1) #0 {
  %3 = alloca [4 x %struct.ossl_quic_ack_range_st], align 16
  %4 = alloca %struct.ossl_quic_frame_ack_st, align 8
  %5 = alloca i64, align 8
  %6 = alloca i64, align 8
  call void @llvm.lifetime.start.p0(i64 64, ptr nonnull %3) #4
  call void @llvm.memset.p0.i64(ptr noundef nonnull align 16 dereferenceable(64) %3, i8 0, i64 64, i1 false)
  call void @llvm.lifetime.start.p0(i64 56, ptr nonnull %4) #4
  %7 = getelementptr inbounds nuw i8, ptr %4, i64 16
  call void @llvm.memset.p0.i64(ptr noundef nonnull align 8 dereferenceable(56) %7, i8 0, i64 40, i1 false)
  call void @llvm.lifetime.start.p0(i64 8, ptr nonnull %5) #4
  store i64 0, ptr %5, align 8, !tbaa !13
  call void @llvm.lifetime.start.p0(i64 8, ptr nonnull %6) #4
  store i64 0, ptr %6, align 8, !tbaa !13
  store ptr %3, ptr %4, align 8, !tbaa !34
  %8 = getelementptr inbounds nuw i8, ptr %4, i64 8
  store i64 4, ptr %8, align 8, !tbaa !38
  %9 = call i32 @ossl_quic_wire_peek_frame_ack_num_ranges(ptr noundef %0, ptr noundef nonnull %6) #4
  %10 = icmp slt i64 %1, 0
  br i1 %10, label %11, label %13

11:                                               ; preds = %2
  %12 = call i32 @test_int_eq(ptr noundef nonnull @.str.5, i32 noundef 107, ptr noundef nonnull @.str.26, ptr noundef nonnull @.str.8, i32 noundef %9, i32 noundef 1) #4
  %.not = icmp eq i32 %12, 0
  br i1 %.not, label %61, label %13

13:                                               ; preds = %11, %2
  %14 = call i32 @ossl_quic_wire_decode_frame_ack(ptr noundef %0, i32 noundef 3, ptr noundef nonnull %4, ptr noundef nonnull %5) #4
  %.lobit = lshr i64 %1, 63
  %15 = trunc nuw nsw i64 %.lobit to i32
  %16 = call i32 @test_int_eq(ptr noundef nonnull @.str.5, i32 noundef 110, ptr noundef nonnull @.str.27, ptr noundef nonnull @.str.23, i32 noundef %14, i32 noundef %15) #4
  %.not7 = icmp eq i32 %16, 0
  br i1 %.not7, label %61, label %17

17:                                               ; preds = %13
  %18 = icmp eq i32 %9, 1
  br i1 %18, label %19, label %22

19:                                               ; preds = %17
  %20 = load i64, ptr %6, align 8, !tbaa !13
  %21 = call i32 @test_uint64_t_eq(ptr noundef nonnull @.str.5, i32 noundef 113, ptr noundef nonnull @.str.28, ptr noundef nonnull @.str.29, i64 noundef %20, i64 noundef 2) #4
  %.not8 = icmp eq i32 %21, 0
  br i1 %.not8, label %61, label %22

22:                                               ; preds = %19, %17
  %23 = icmp sgt i64 %1, -1
  br i1 %23, label %61, label %24

24:                                               ; preds = %22
  %25 = load i64, ptr %5, align 8, !tbaa !13
  %26 = load i64, ptr %6, align 8, !tbaa !13
  %27 = call i32 @test_uint64_t_eq(ptr noundef nonnull @.str.5, i32 noundef 119, ptr noundef nonnull @.str.30, ptr noundef nonnull @.str.28, i64 noundef %25, i64 noundef %26) #4
  %.not9 = icmp eq i32 %27, 0
  br i1 %.not9, label %61, label %28

28:                                               ; preds = %24
  %29 = load i64, ptr %8, align 8, !tbaa !38
  %30 = shl i64 %29, 4
  %31 = call i32 @test_uint64_t_le(ptr noundef nonnull @.str.5, i32 noundef 123, ptr noundef nonnull @.str.31, ptr noundef nonnull @.str.32, i64 noundef %30, i64 noundef -1) #4
  %.not10 = icmp eq i32 %31, 0
  br i1 %.not10, label %61, label %32

32:                                               ; preds = %28
  %33 = call i32 @test_uint64_t_le(ptr noundef nonnull @.str.5, i32 noundef 126, ptr noundef nonnull @.str.33, ptr noundef nonnull @.str.32, i64 noundef 32, i64 noundef -1) #4
  %.not11 = icmp eq i32 %33, 0
  br i1 %.not11, label %61, label %34

34:                                               ; preds = %32
  %35 = load ptr, ptr %4, align 8, !tbaa !34
  %36 = load i64, ptr %8, align 8, !tbaa !38
  %37 = shl i64 %36, 4
  %38 = call i32 @test_mem_eq(ptr noundef nonnull @.str.5, i32 noundef 132, ptr noundef nonnull @.str.34, ptr noundef nonnull @.str.35, ptr noundef %35, i64 noundef %37, ptr noundef nonnull @encode_case_3_ranges, i64 noundef 32) #4
  %.not12 = icmp eq i32 %38, 0
  br i1 %.not12, label %61, label %39

39:                                               ; preds = %34
  %40 = getelementptr inbounds nuw i8, ptr %4, i64 16
  %41 = load i64, ptr %40, align 8
  %42 = call i32 @test_uint64_t_eq(ptr noundef nonnull @.str.5, i32 noundef 136, ptr noundef nonnull @.str.36, ptr noundef nonnull @.str.37, i64 noundef %41, i64 noundef 1000000) #4
  %.not13 = icmp eq i32 %42, 0
  br i1 %.not13, label %61, label %43

43:                                               ; preds = %39
  %44 = getelementptr inbounds nuw i8, ptr %4, i64 48
  %45 = load i8, ptr %44, align 8
  %46 = and i8 %45, 1
  %47 = zext nneg i8 %46 to i32
  %48 = call i32 @test_true(ptr noundef nonnull @.str.5, i32 noundef 139, ptr noundef nonnull @.str.38, i32 noundef %47) #4
  %.not14 = icmp eq i32 %48, 0
  br i1 %.not14, label %61, label %49

49:                                               ; preds = %43
  %50 = getelementptr inbounds nuw i8, ptr %4, i64 24
  %51 = load i64, ptr %50, align 8, !tbaa !39
  %52 = call i32 @test_uint64_t_eq(ptr noundef nonnull @.str.5, i32 noundef 142, ptr noundef nonnull @.str.39, ptr noundef nonnull @.str.40, i64 noundef %51, i64 noundef 60) #4
  %.not15 = icmp eq i32 %52, 0
  br i1 %.not15, label %61, label %53

53:                                               ; preds = %49
  %54 = getelementptr inbounds nuw i8, ptr %4, i64 32
  %55 = load i64, ptr %54, align 8, !tbaa !40
  %56 = call i32 @test_uint64_t_eq(ptr noundef nonnull @.str.5, i32 noundef 145, ptr noundef nonnull @.str.41, ptr noundef nonnull @.str.42, i64 noundef %55, i64 noundef 70) #4
  %.not16 = icmp eq i32 %56, 0
  br i1 %.not16, label %61, label %57

57:                                               ; preds = %53
  %58 = getelementptr inbounds nuw i8, ptr %4, i64 40
  %59 = load i64, ptr %58, align 8, !tbaa !41
  %60 = call i32 @test_uint64_t_eq(ptr noundef nonnull @.str.5, i32 noundef 148, ptr noundef nonnull @.str.43, ptr noundef nonnull @.str.44, i64 noundef %59, i64 noundef 80) #4
  %.not17 = icmp ne i32 %60, 0
  %. = zext i1 %.not17 to i32
  br label %61

61:                                               ; preds = %57, %53, %49, %43, %39, %34, %28, %32, %24, %22, %19, %13, %11
  %.0 = phi i32 [ 0, %11 ], [ 0, %13 ], [ 0, %19 ], [ 1, %22 ], [ 0, %24 ], [ 0, %32 ], [ 0, %28 ], [ 0, %34 ], [ 0, %39 ], [ 0, %43 ], [ 0, %49 ], [ 0, %53 ], [ %., %57 ]
  call void @llvm.lifetime.end.p0(i64 8, ptr nonnull %6) #4
  call void @llvm.lifetime.end.p0(i64 8, ptr nonnull %5) #4
  call void @llvm.lifetime.end.p0(i64 56, ptr nonnull %4) #4
  call void @llvm.lifetime.end.p0(i64 64, ptr nonnull %3) #4
  ret i32 %.0
}